; Function Attrs: mustprogress nounwind uwtable
define dso_local void @_ZN4llvm11EmitDecoderERNS_12RecordKeeperERNS_11raw_ostreamERKNSt7__cxx1112basic_stringIcSt11char_traitsIcESaIcEEE(ptr noundef nonnull align 8 dereferenceable(232) %0, ptr noundef nonnull align 8 dereferenceable(48) %1, ptr noundef nonnull align 8 dereferenceable(32) %2) local_unnamed_addr #0 {
  %4 = alloca %"class.(anonymous namespace)::DecoderEmitter", align 8
  %5 = alloca %"class.std::__cxx11::basic_string", align 8
  call void @_ZNSt7__cxx1112basic_stringIcSt11char_traitsIcESaIcEEC1ERKS4_(ptr noundef nonnull align 8 dereferenceable(32) %5, ptr noundef nonnull align 8 dereferenceable(32) %2) #20
  store ptr %0, ptr %4, align 8
  %6 = getelementptr inbounds nuw i8, ptr %4, i64 8
  call void @llvm.memset.p0.i64(ptr noundef nonnull align 8 dereferenceable(24) %6, i8 0, i64 24, i1 false)
  %7 = getelementptr inbounds nuw i8, ptr %4, i64 32
  call void @_ZN4llvm13CodeGenTargetC1ERNS_12RecordKeeperE(ptr noundef nonnull align 8 dereferenceable(724) %7, ptr noundef nonnull align 8 dereferenceable(232) %0) #20
  %8 = getelementptr inbounds nuw i8, ptr %4, i64 760
  call void @_ZNSt7__cxx1112basic_stringIcSt11char_traitsIcESaIcEEC1EOS4_(ptr noundef nonnull align 8 dereferenceable(32) %8, ptr noundef nonnull align 8 dereferenceable(32) %5) #20
  call fastcc void @_ZN12_GLOBAL__N_114DecoderEmitter3runERN4llvm11raw_ostreamE(ptr noundef nonnull align 8 dereferenceable(792) %4, ptr noundef nonnull align 8 dereferenceable(48) %1)
  call void @_ZNSt7__cxx1112basic_stringIcSt11char_traitsIcESaIcEED1Ev(ptr noundef nonnull align 8 dereferenceable(32) %8) #20
  call void @_ZN4llvm13CodeGenTargetD1Ev(ptr noundef nonnull align 8 dereferenceable(724) %7) #20
  %.val.i = load ptr, ptr %6, align 8
  %.not.i.i.i.i = icmp eq ptr %.val.i, null
  br i1 %.not.i.i.i.i, label %_ZN12_GLOBAL__N_114DecoderEmitterD2Ev.exit, label %9

9:                                                ; preds = %3
  %10 = getelementptr inbounds nuw i8, ptr %4, i64 24
  %.val1.i = load ptr, ptr %10, align 8
  %11 = ptrtoint ptr %.val1.i to i64
  %12 = ptrtoint ptr %.val.i to i64
  %13 = sub i64 %11, %12
  call void @_ZdlPvm(ptr noundef nonnull %.val.i, i64 noundef %13) #21
  br label %_ZN12_GLOBAL__N_114DecoderEmitterD2Ev.exit

_ZN12_GLOBAL__N_114DecoderEmitterD2Ev.exit:       ; preds = %3, %9
  call void @_ZNSt7__cxx1112basic_stringIcSt11char_traitsIcESaIcEED1Ev(ptr noundef nonnull align 8 dereferenceable(32) %5) #20
  ret void
}